; Function Attrs: mustprogress nofree norecurse nosync nounwind willreturn memory(read, inaccessiblemem: none) uwtable
define internal noundef ptr @_ZNK9grpc_core12_GLOBAL__N_116WeightedTargetLb13WeightedChild6Helper13parent_helperEv(ptr nocapture noundef nonnull readonly align 8 dereferenceable(16) %this) unnamed_addr #19 align 2 {
entry:
  %weighted_child_ = getelementptr inbounds i8, ptr %this, i64 8
  %weighted_child_.val = load ptr, ptr %weighted_child_, align 8
  %weighted_target_policy_ = getelementptr inbounds i8, ptr %weighted_child_.val, i64 16
  %weighted_target_policy_.val = load ptr, ptr %weighted_target_policy_, align 8
  %channel_control_helper_.i = getelementptr inbounds i8, ptr %weighted_target_policy_.val, i64 40
  %0 = load ptr, ptr %channel_control_helper_.i, align 8
  ret ptr %0
}